target datalayout = "e-m:e-p270:32:32-p271:32:32-p272:64:64-i64:64-i128:128-f80:128-n8:16:32:64-S128"
target triple = "x86_64-pc-linux-gnu"

%struct.SSL_TEST_CTX = type { i32, i32, i32, i32, i32, %struct.SSL_TEST_EXTRA_CONF, %struct.SSL_TEST_EXTRA_CONF, i32, i32, i32, i32, i32, i32, i32, ptr, ptr, i32, i32, i32, i32, i32, ptr, i32, i32, i32, ptr, i32, i32, i32, i32, i32, ptr, ptr, ptr, ptr }
%struct.SSL_TEST_EXTRA_CONF = type { %struct.SSL_TEST_CLIENT_CONF, %struct.SSL_TEST_SERVER_CONF, %struct.SSL_TEST_SERVER_CONF }
%struct.SSL_TEST_CLIENT_CONF = type { i32, i32, i32, ptr, ptr, i32, ptr, ptr, ptr, i32, i32 }
%struct.SSL_TEST_SERVER_CONF = type { i32, ptr, ptr, i32, i32, ptr, ptr, i32, ptr }

@.str = private unnamed_addr constant [39 x i8] c"../openssl/test/helpers/ssl_test_ctx.c\00", align 1
@.str.49 = private unnamed_addr constant [4 x i8] c"Yes\00", align 1
@.str.50 = private unnamed_addr constant [3 x i8] c"No\00", align 1
@.str.93 = private unnamed_addr constant [26 x i8] c"parse_boolean given: '%s'\00", align 1

; Function Attrs: nounwind uwtable
define internal i32 @parse_boolean(ptr noundef %0, ptr noundef %1) #0 {
  %3 = alloca i32, align 4
  %4 = alloca ptr, align 8
  %5 = alloca ptr, align 8
  store ptr %0, ptr %4, align 8, !tbaa !38
  store ptr %1, ptr %5, align 8, !tbaa !77
  %6 = load ptr, ptr %4, align 8, !tbaa !38
  %7 = call i32 @OPENSSL_strcasecmp(ptr noundef %6, ptr noundef @.str.49)
  %8 = icmp eq i32 %7, 0
  br i1 %8, label %9, label %11

9:                                                ; preds = %2
  %10 = load ptr, ptr %5, align 8, !tbaa !77
  store i32 1, ptr %10, align 4, !tbaa !4
  store i32 1, ptr %3, align 4
  br label %20

11:                                               ; preds = %2
  %12 = load ptr, ptr %4, align 8, !tbaa !38
  %13 = call i32 @OPENSSL_strcasecmp(ptr noundef %12, ptr noundef @.str.50)
  %14 = icmp eq i32 %13, 0
  br i1 %14, label %15, label %17

15:                                               ; preds = %11
  %16 = load ptr, ptr %5, align 8, !tbaa !77
  store i32 0, ptr %16, align 4, !tbaa !4
  store i32 1, ptr %3, align 4
  br label %20

17:                                               ; preds = %11
  br label %18

18:                                               ; preds = %17
  %19 = load ptr, ptr %4, align 8, !tbaa !38
  call void (ptr, i32, ptr, ...) @test_error(ptr noundef @.str, i32 noundef 33, ptr noundef @.str.93, ptr noundef %19)
  store i32 0, ptr %3, align 4
  br label %20

20:                                               ; preds = %18, %15, %9
  %21 = load i32, ptr %3, align 4
  ret i32 %21
}

; Function Attrs: nounwind uwtable
define internal i32 @parse_test_compress_certificates(ptr noundef %0, ptr noundef %1) #0 {
  %3 = alloca ptr, align 8
  %4 = alloca ptr, align 8
  store ptr %0, ptr %3, align 8, !tbaa !8
  store ptr %1, ptr %4, align 8, !tbaa !38
  %5 = load ptr, ptr %4, align 8, !tbaa !38
  %6 = load ptr, ptr %3, align 8, !tbaa !8
  %7 = getelementptr inbounds nuw %struct.SSL_TEST_CTX, ptr %6, i32 0, i32 27
  %8 = call i32 @parse_boolean(ptr noundef %5, ptr noundef %7)
  ret i32 %8
}