; Function Attrs: nounwind uwtable
define internal range(i32 0, 2) i32 @parse_test_compress_certificates(ptr noundef writeonly captures(none) %0, ptr noundef %1) #1 {
  %3 = getelementptr inbounds nuw i8, ptr %0, i64 532
  %4 = tail call i32 @OPENSSL_strcasecmp(ptr noundef %1, ptr noundef nonnull @.str.49) #8
  %5 = icmp eq i32 %4, 0
  br i1 %5, label %6, label %7

6:                                                ; preds = %2
  store i32 1, ptr %3, align 4, !tbaa !67
  br label %parse_boolean.exit

7:                                                ; preds = %2
  %8 = tail call i32 @OPENSSL_strcasecmp(ptr noundef %1, ptr noundef nonnull @.str.50) #8
  %9 = icmp eq i32 %8, 0
  br i1 %9, label %10, label %11

10:                                               ; preds = %7
  store i32 0, ptr %3, align 4, !tbaa !67
  br label %parse_boolean.exit

11:                                               ; preds = %7
  tail call void (ptr, i32, ptr, ...) @test_error(ptr noundef nonnull @.str, i32 noundef 33, ptr noundef nonnull @.str.93, ptr noundef %1) #8
  br label %parse_boolean.exit

parse_boolean.exit:                               ; preds = %6, %10, %11
  %.0.i = phi i32 [ 1, %6 ], [ 1, %10 ], [ 0, %11 ]
  ret i32 %.0.i
}